target datalayout = "e-m:e-p270:32:32-p271:32:32-p272:64:64-i64:64-i128:128-f80:128-n8:16:32:64-S128"
target triple = "x86_64-pc-linux-gnu"

; Function Attrs: nounwind uwtable
define internal void @dc_left_predictor(ptr noundef %0, i64 noundef %1, i32 noundef %2, i32 noundef %3, ptr noundef %4, ptr noundef %5) #0 {
  %7 = alloca ptr, align 8
  %8 = alloca i64, align 8
  %9 = alloca i32, align 4
  %10 = alloca i32, align 4
  %11 = alloca ptr, align 8
  %12 = alloca ptr, align 8
  %13 = alloca i32, align 4
  %14 = alloca i32, align 4
  %15 = alloca i32, align 4
  %16 = alloca i32, align 4
  store ptr %0, ptr %7, align 8
  store i64 %1, ptr %8, align 8
  store i32 %2, ptr %9, align 4
  store i32 %3, ptr %10, align 4
  store ptr %4, ptr %11, align 8
  store ptr %5, ptr %12, align 8
  store i32 0, ptr %16, align 4
  store i32 0, ptr %13, align 4
  br label %17

17:                                               ; preds = %30, %6
  %18 = load i32, ptr %13, align 4
  %19 = load i32, ptr %10, align 4
  %20 = icmp slt i32 %18, %19
  br i1 %20, label %21, label %33

21:                                               ; preds = %17
  %22 = load ptr, ptr %12, align 8
  %23 = load i32, ptr %13, align 4
  %24 = sext i32 %23 to i64
  %25 = getelementptr inbounds i8, ptr %22, i64 %24
  %26 = load i8, ptr %25, align 1
  %27 = zext i8 %26 to i32
  %28 = load i32, ptr %16, align 4
  %29 = add nsw i32 %28, %27
  store i32 %29, ptr %16, align 4
  br label %30

30:                                               ; preds = %21
  %31 = load i32, ptr %13, align 4
  %32 = add nsw i32 %31, 1
  store i32 %32, ptr %13, align 4
  br label %17, !llvm.loop !39

33:                                               ; preds = %17
  %34 = load i32, ptr %16, align 4
  %35 = load i32, ptr %10, align 4
  %36 = ashr i32 %35, 1
  %37 = add nsw i32 %34, %36
  %38 = load i32, ptr %10, align 4
  %39 = sdiv i32 %37, %38
  store i32 %39, ptr %15, align 4
  store i32 0, ptr %14, align 4
  br label %40

40:                                               ; preds = %53, %33
  %41 = load i32, ptr %14, align 4
  %42 = load i32, ptr %10, align 4
  %43 = icmp slt i32 %41, %42
  br i1 %43, label %44, label %56

44:                                               ; preds = %40
  %45 = load ptr, ptr %7, align 8
  %46 = load i32, ptr %15, align 4
  %47 = trunc i32 %46 to i8
  %48 = load i32, ptr %9, align 4
  %49 = sext i32 %48 to i64
  call void @llvm.memset.p0.i64(ptr align 1 %45, i8 %47, i64 %49, i1 false)
  %50 = load i64, ptr %8, align 8
  %51 = load ptr, ptr %7, align 8
  %52 = getelementptr inbounds i8, ptr %51, i64 %50
  store ptr %52, ptr %7, align 8
  br label %53

53:                                               ; preds = %44
  %54 = load i32, ptr %14, align 4
  %55 = add nsw i32 %54, 1
  store i32 %55, ptr %14, align 4
  br label %40, !llvm.loop !40

56:                                               ; preds = %40
  ret void
}

; Function Attrs: nounwind uwtable
define hidden void @aom_dc_left_predictor_32x64_c(ptr noundef %0, i64 noundef %1, ptr noundef %2, ptr noundef %3) #0 {
  %5 = alloca ptr, align 8
  %6 = alloca i64, align 8
  %7 = alloca ptr, align 8
  %8 = alloca ptr, align 8
  store ptr %0, ptr %5, align 8
  store i64 %1, ptr %6, align 8
  store ptr %2, ptr %7, align 8
  store ptr %3, ptr %8, align 8
  %9 = load ptr, ptr %5, align 8
  %10 = load i64, ptr %6, align 8
  %11 = load ptr, ptr %7, align 8
  %12 = load ptr, ptr %8, align 8
  call void @dc_left_predictor(ptr noundef %9, i64 noundef %10, i32 noundef 32, i32 noundef 64, ptr noundef %11, ptr noundef %12)
  ret void
}